target datalayout = "e-m:e-p270:32:32-p271:32:32-p272:64:64-i64:64-i128:128-f80:128-n8:16:32:64-S128"
target triple = "x86_64-pc-linux-gnu"

%struct.bignum_st = type { ptr, i32, i32, i32, i32 }

; Function Attrs: nounwind uwtable
define i32 @bn_mul_fixed_top(ptr noundef %0, ptr noundef %1, ptr noundef %2, ptr noundef %3) #0 {
  %5 = alloca i32, align 4
  %6 = alloca ptr, align 8
  %7 = alloca ptr, align 8
  %8 = alloca ptr, align 8
  %9 = alloca ptr, align 8
  %10 = alloca i32, align 4
  %11 = alloca i32, align 4
  %12 = alloca i32, align 4
  %13 = alloca i32, align 4
  %14 = alloca ptr, align 8
  %15 = alloca i32, align 4
  %16 = alloca ptr, align 8
  %17 = alloca i32, align 4
  %18 = alloca i32, align 4
  %19 = alloca i32, align 4
  store ptr %0, ptr %6, align 8, !tbaa !16
  store ptr %1, ptr %7, align 8, !tbaa !16
  store ptr %2, ptr %8, align 8, !tbaa !16
  store ptr %3, ptr %9, align 8, !tbaa !18
  call void @llvm.lifetime.start.p0(i64 4, ptr %10) #4
  store i32 0, ptr %10, align 4, !tbaa !8
  call void @llvm.lifetime.start.p0(i64 4, ptr %11) #4
  call void @llvm.lifetime.start.p0(i64 4, ptr %12) #4
  call void @llvm.lifetime.start.p0(i64 4, ptr %13) #4
  call void @llvm.lifetime.start.p0(i64 8, ptr %14) #4
  call void @llvm.lifetime.start.p0(i64 4, ptr %15) #4
  call void @llvm.lifetime.start.p0(i64 8, ptr %16) #4
  store ptr null, ptr %16, align 8, !tbaa !16
  call void @llvm.lifetime.start.p0(i64 4, ptr %17) #4
  store i32 0, ptr %17, align 4, !tbaa !8
  call void @llvm.lifetime.start.p0(i64 4, ptr %18) #4
  %20 = load ptr, ptr %7, align 8, !tbaa !16
  %21 = getelementptr inbounds nuw %struct.bignum_st, ptr %20, i32 0, i32 1
  %22 = load i32, ptr %21, align 8, !tbaa !20
  store i32 %22, ptr %12, align 4, !tbaa !8
  %23 = load ptr, ptr %8, align 8, !tbaa !16
  %24 = getelementptr inbounds nuw %struct.bignum_st, ptr %23, i32 0, i32 1
  %25 = load i32, ptr %24, align 8, !tbaa !20
  store i32 %25, ptr %13, align 4, !tbaa !8
  %26 = load i32, ptr %12, align 4, !tbaa !8
  %27 = icmp eq i32 %26, 0
  br i1 %27, label %31, label %28

28:                                               ; preds = %4
  %29 = load i32, ptr %13, align 4, !tbaa !8
  %30 = icmp eq i32 %29, 0
  br i1 %30, label %31, label %33

31:                                               ; preds = %28, %4
  %32 = load ptr, ptr %6, align 8, !tbaa !16
  call void @BN_zero_ex(ptr noundef %32)
  store i32 1, ptr %5, align 4
  store i32 1, ptr %19, align 4
  br label %247

33:                                               ; preds = %28
  %34 = load i32, ptr %12, align 4, !tbaa !8
  %35 = load i32, ptr %13, align 4, !tbaa !8
  %36 = add nsw i32 %34, %35
  store i32 %36, ptr %11, align 4, !tbaa !8
  %37 = load ptr, ptr %9, align 8, !tbaa !18
  call void @BN_CTX_start(ptr noundef %37)
  %38 = load ptr, ptr %6, align 8, !tbaa !16
  %39 = load ptr, ptr %7, align 8, !tbaa !16
  %40 = icmp eq ptr %38, %39
  br i1 %40, label %45, label %41

41:                                               ; preds = %33
  %42 = load ptr, ptr %6, align 8, !tbaa !16
  %43 = load ptr, ptr %8, align 8, !tbaa !16
  %44 = icmp eq ptr %42, %43
  br i1 %44, label %45, label %51

45:                                               ; preds = %41, %33
  %46 = load ptr, ptr %9, align 8, !tbaa !18
  %47 = call ptr @BN_CTX_get(ptr noundef %46)
  store ptr %47, ptr %14, align 8, !tbaa !16
  %48 = icmp eq ptr %47, null
  br i1 %48, label %49, label %50

49:                                               ; preds = %45
  br label %244

50:                                               ; preds = %45
  br label %53

51:                                               ; preds = %41
  %52 = load ptr, ptr %6, align 8, !tbaa !16
  store ptr %52, ptr %14, align 8, !tbaa !16
  br label %53

53:                                               ; preds = %51, %50
  %54 = load i32, ptr %12, align 4, !tbaa !8
  %55 = load i32, ptr %13, align 4, !tbaa !8
  %56 = sub nsw i32 %54, %55
  store i32 %56, ptr %15, align 4, !tbaa !8
  %57 = load i32, ptr %15, align 4, !tbaa !8
  %58 = icmp eq i32 %57, 0
  br i1 %58, label %59, label %80

59:                                               ; preds = %53
  %60 = load i32, ptr %12, align 4, !tbaa !8
  %61 = icmp eq i32 %60, 8
  br i1 %61, label %62, label %79

62:                                               ; preds = %59
  %63 = load ptr, ptr %14, align 8, !tbaa !16
  %64 = call ptr @bn_wexpand(ptr noundef %63, i32 noundef 16)
  %65 = icmp eq ptr %64, null
  br i1 %65, label %66, label %67

66:                                               ; preds = %62
  br label %244

67:                                               ; preds = %62
  %68 = load ptr, ptr %14, align 8, !tbaa !16
  %69 = getelementptr inbounds nuw %struct.bignum_st, ptr %68, i32 0, i32 1
  store i32 16, ptr %69, align 8, !tbaa !20
  %70 = load ptr, ptr %14, align 8, !tbaa !16
  %71 = getelementptr inbounds nuw %struct.bignum_st, ptr %70, i32 0, i32 0
  %72 = load ptr, ptr %71, align 8, !tbaa !22
  %73 = load ptr, ptr %7, align 8, !tbaa !16
  %74 = getelementptr inbounds nuw %struct.bignum_st, ptr %73, i32 0, i32 0
  %75 = load ptr, ptr %74, align 8, !tbaa !22
  %76 = load ptr, ptr %8, align 8, !tbaa !16
  %77 = getelementptr inbounds nuw %struct.bignum_st, ptr %76, i32 0, i32 0
  %78 = load ptr, ptr %77, align 8, !tbaa !22
  call void @bn_mul_comba8(ptr noundef %72, ptr noundef %75, ptr noundef %78)
  br label %220

79:                                               ; preds = %59
  br label %80

80:                                               ; preds = %79, %53
  %81 = load i32, ptr %12, align 4, !tbaa !8
  %82 = icmp sge i32 %81, 16
  br i1 %82, label %83, label %199

83:                                               ; preds = %80
  %84 = load i32, ptr %13, align 4, !tbaa !8
  %85 = icmp sge i32 %84, 16
  br i1 %85, label %86, label %199

86:                                               ; preds = %83
  %87 = load i32, ptr %15, align 4, !tbaa !8
  %88 = icmp sge i32 %87, -1
  br i1 %88, label %89, label %198

89:                                               ; preds = %86
  %90 = load i32, ptr %15, align 4, !tbaa !8
  %91 = icmp sle i32 %90, 1
  br i1 %91, label %92, label %198

92:                                               ; preds = %89
  %93 = load i32, ptr %15, align 4, !tbaa !8
  %94 = icmp sge i32 %93, 0
  br i1 %94, label %95, label %99

95:                                               ; preds = %92
  %96 = load i32, ptr %12, align 4, !tbaa !8
  %97 = sext i32 %96 to i64
  %98 = call i32 @BN_num_bits_word(i64 noundef %97)
  store i32 %98, ptr %17, align 4, !tbaa !8
  br label %99

99:                                               ; preds = %95, %92
  %100 = load i32, ptr %15, align 4, !tbaa !8
  %101 = icmp eq i32 %100, -1
  br i1 %101, label %102, label %106

102:                                              ; preds = %99
  %103 = load i32, ptr %13, align 4, !tbaa !8
  %104 = sext i32 %103 to i64
  %105 = call i32 @BN_num_bits_word(i64 noundef %104)
  store i32 %105, ptr %17, align 4, !tbaa !8
  br label %106

106:                                              ; preds = %102, %99
  %107 = load i32, ptr %17, align 4, !tbaa !8
  %108 = sub nsw i32 %107, 1
  %109 = shl i32 1, %108
  store i32 %109, ptr %17, align 4, !tbaa !8
  %110 = load i32, ptr %17, align 4, !tbaa !8
  %111 = load i32, ptr %17, align 4, !tbaa !8
  %112 = add nsw i32 %110, %111
  store i32 %112, ptr %18, align 4, !tbaa !8
  %113 = load ptr, ptr %9, align 8, !tbaa !18
  %114 = call ptr @BN_CTX_get(ptr noundef %113)
  store ptr %114, ptr %16, align 8, !tbaa !16
  %115 = load ptr, ptr %16, align 8, !tbaa !16
  %116 = icmp eq ptr %115, null
  br i1 %116, label %117, label %118

117:                                              ; preds = %106
  br label %244

118:                                              ; preds = %106
  %119 = load i32, ptr %12, align 4, !tbaa !8
  %120 = load i32, ptr %17, align 4, !tbaa !8
  %121 = icmp sgt i32 %119, %120
  br i1 %121, label %126, label %122

122:                                              ; preds = %118
  %123 = load i32, ptr %13, align 4, !tbaa !8
  %124 = load i32, ptr %17, align 4, !tbaa !8
  %125 = icmp sgt i32 %123, %124
  br i1 %125, label %126, label %160

126:                                              ; preds = %122, %118
  %127 = load ptr, ptr %16, align 8, !tbaa !16
  %128 = load i32, ptr %18, align 4, !tbaa !8
  %129 = mul nsw i32 %128, 4
  %130 = call ptr @bn_wexpand(ptr noundef %127, i32 noundef %129)
  %131 = icmp eq ptr %130, null
  br i1 %131, label %132, label %133

132:                                              ; preds = %126
  br label %244

133:                                              ; preds = %126
  %134 = load ptr, ptr %14, align 8, !tbaa !16
  %135 = load i32, ptr %18, align 4, !tbaa !8
  %136 = mul nsw i32 %135, 4
  %137 = call ptr @bn_wexpand(ptr noundef %134, i32 noundef %136)
  %138 = icmp eq ptr %137, null
  br i1 %138, label %139, label %140

139:                                              ; preds = %133
  br label %244

140:                                              ; preds = %133
  %141 = load ptr, ptr %14, align 8, !tbaa !16
  %142 = getelementptr inbounds nuw %struct.bignum_st, ptr %141, i32 0, i32 0
  %143 = load ptr, ptr %142, align 8, !tbaa !22
  %144 = load ptr, ptr %7, align 8, !tbaa !16
  %145 = getelementptr inbounds nuw %struct.bignum_st, ptr %144, i32 0, i32 0
  %146 = load ptr, ptr %145, align 8, !tbaa !22
  %147 = load ptr, ptr %8, align 8, !tbaa !16
  %148 = getelementptr inbounds nuw %struct.bignum_st, ptr %147, i32 0, i32 0
  %149 = load ptr, ptr %148, align 8, !tbaa !22
  %150 = load i32, ptr %17, align 4, !tbaa !8
  %151 = load i32, ptr %12, align 4, !tbaa !8
  %152 = load i32, ptr %17, align 4, !tbaa !8
  %153 = sub nsw i32 %151, %152
  %154 = load i32, ptr %13, align 4, !tbaa !8
  %155 = load i32, ptr %17, align 4, !tbaa !8
  %156 = sub nsw i32 %154, %155
  %157 = load ptr, ptr %16, align 8, !tbaa !16
  %158 = getelementptr inbounds nuw %struct.bignum_st, ptr %157, i32 0, i32 0
  %159 = load ptr, ptr %158, align 8, !tbaa !22
  call void @bn_mul_part_recursive(ptr noundef %143, ptr noundef %146, ptr noundef %149, i32 noundef %150, i32 noundef %153, i32 noundef %156, ptr noundef %159)
  br label %194

160:                                              ; preds = %122
  %161 = load ptr, ptr %16, align 8, !tbaa !16
  %162 = load i32, ptr %18, align 4, !tbaa !8
  %163 = mul nsw i32 %162, 2
  %164 = call ptr @bn_wexpand(ptr noundef %161, i32 noundef %163)
  %165 = icmp eq ptr %164, null
  br i1 %165, label %166, label %167

166:                                              ; preds = %160
  br label %244

167:                                              ; preds = %160
  %168 = load ptr, ptr %14, align 8, !tbaa !16
  %169 = load i32, ptr %18, align 4, !tbaa !8
  %170 = mul nsw i32 %169, 2
  %171 = call ptr @bn_wexpand(ptr noundef %168, i32 noundef %170)
  %172 = icmp eq ptr %171, null
  br i1 %172, label %173, label %174

173:                                              ; preds = %167
  br label %244

174:                                              ; preds = %167
  %175 = load ptr, ptr %14, align 8, !tbaa !16
  %176 = getelementptr inbounds nuw %struct.bignum_st, ptr %175, i32 0, i32 0
  %177 = load ptr, ptr %176, align 8, !tbaa !22
  %178 = load ptr, ptr %7, align 8, !tbaa !16
  %179 = getelementptr inbounds nuw %struct.bignum_st, ptr %178, i32 0, i32 0
  %180 = load ptr, ptr %179, align 8, !tbaa !22
  %181 = load ptr, ptr %8, align 8, !tbaa !16
  %182 = getelementptr inbounds nuw %struct.bignum_st, ptr %181, i32 0, i32 0
  %183 = load ptr, ptr %182, align 8, !tbaa !22
  %184 = load i32, ptr %17, align 4, !tbaa !8
  %185 = load i32, ptr %12, align 4, !tbaa !8
  %186 = load i32, ptr %17, align 4, !tbaa !8
  %187 = sub nsw i32 %185, %186
  %188 = load i32, ptr %13, align 4, !tbaa !8
  %189 = load i32, ptr %17, align 4, !tbaa !8
  %190 = sub nsw i32 %188, %189
  %191 = load ptr, ptr %16, align 8, !tbaa !16
  %192 = getelementptr inbounds nuw %struct.bignum_st, ptr %191, i32 0, i32 0
  %193 = load ptr, ptr %192, align 8, !tbaa !22
  call void @bn_mul_recursive(ptr noundef %177, ptr noundef %180, ptr noundef %183, i32 noundef %184, i32 noundef %187, i32 noundef %190, ptr noundef %193)
  br label %194

194:                                              ; preds = %174, %140
  %195 = load i32, ptr %11, align 4, !tbaa !8
  %196 = load ptr, ptr %14, align 8, !tbaa !16
  %197 = getelementptr inbounds nuw %struct.bignum_st, ptr %196, i32 0, i32 1
  store i32 %195, ptr %197, align 8, !tbaa !20
  br label %220

198:                                              ; preds = %89, %86
  br label %199

199:                                              ; preds = %198, %83, %80
  %200 = load ptr, ptr %14, align 8, !tbaa !16
  %201 = load i32, ptr %11, align 4, !tbaa !8
  %202 = call ptr @bn_wexpand(ptr noundef %200, i32 noundef %201)
  %203 = icmp eq ptr %202, null
  br i1 %203, label %204, label %205

204:                                              ; preds = %199
  br label %244

205:                                              ; preds = %199
  %206 = load i32, ptr %11, align 4, !tbaa !8
  %207 = load ptr, ptr %14, align 8, !tbaa !16
  %208 = getelementptr inbounds nuw %struct.bignum_st, ptr %207, i32 0, i32 1
  store i32 %206, ptr %208, align 8, !tbaa !20
  %209 = load ptr, ptr %14, align 8, !tbaa !16
  %210 = getelementptr inbounds nuw %struct.bignum_st, ptr %209, i32 0, i32 0
  %211 = load ptr, ptr %210, align 8, !tbaa !22
  %212 = load ptr, ptr %7, align 8, !tbaa !16
  %213 = getelementptr inbounds nuw %struct.bignum_st, ptr %212, i32 0, i32 0
  %214 = load ptr, ptr %213, align 8, !tbaa !22
  %215 = load i32, ptr %12, align 4, !tbaa !8
  %216 = load ptr, ptr %8, align 8, !tbaa !16
  %217 = getelementptr inbounds nuw %struct.bignum_st, ptr %216, i32 0, i32 0
  %218 = load ptr, ptr %217, align 8, !tbaa !22
  %219 = load i32, ptr %13, align 4, !tbaa !8
  call void @bn_mul_normal(ptr noundef %211, ptr noundef %214, i32 noundef %215, ptr noundef %218, i32 noundef %219)
  br label %220

220:                                              ; preds = %205, %194, %67
  %221 = load ptr, ptr %7, align 8, !tbaa !16
  %222 = getelementptr inbounds nuw %struct.bignum_st, ptr %221, i32 0, i32 3
  %223 = load i32, ptr %222, align 8, !tbaa !23
  %224 = load ptr, ptr %8, align 8, !tbaa !16
  %225 = getelementptr inbounds nuw %struct.bignum_st, ptr %224, i32 0, i32 3
  %226 = load i32, ptr %225, align 8, !tbaa !23
  %227 = xor i32 %223, %226
  %228 = load ptr, ptr %14, align 8, !tbaa !16
  %229 = getelementptr inbounds nuw %struct.bignum_st, ptr %228, i32 0, i32 3
  store i32 %227, ptr %229, align 8, !tbaa !23
  %230 = load ptr, ptr %14, align 8, !tbaa !16
  %231 = getelementptr inbounds nuw %struct.bignum_st, ptr %230, i32 0, i32 4
  %232 = load i32, ptr %231, align 4, !tbaa !24
  %233 = or i32 %232, 0
  store i32 %233, ptr %231, align 4, !tbaa !24
  %234 = load ptr, ptr %6, align 8, !tbaa !16
  %235 = load ptr, ptr %14, align 8, !tbaa !16
  %236 = icmp ne ptr %234, %235
  br i1 %236, label %237, label %243

237:                                              ; preds = %220
  %238 = load ptr, ptr %6, align 8, !tbaa !16
  %239 = load ptr, ptr %14, align 8, !tbaa !16
  %240 = call ptr @BN_copy(ptr noundef %238, ptr noundef %239)
  %241 = icmp eq ptr %240, null
  br i1 %241, label %242, label %243

242:                                              ; preds = %237
  br label %244

243:                                              ; preds = %237, %220
  store i32 1, ptr %10, align 4, !tbaa !8
  br label %244

244:                                              ; preds = %243, %242, %204, %173, %166, %139, %132, %117, %66, %49
  %245 = load ptr, ptr %9, align 8, !tbaa !18
  call void @BN_CTX_end(ptr noundef %245)
  %246 = load i32, ptr %10, align 4, !tbaa !8
  store i32 %246, ptr %5, align 4
  store i32 1, ptr %19, align 4
  br label %247

247:                                              ; preds = %244, %31
  call void @llvm.lifetime.end.p0(i64 4, ptr %18) #4
  call void @llvm.lifetime.end.p0(i64 4, ptr %17) #4
  call void @llvm.lifetime.end.p0(i64 8, ptr %16) #4
  call void @llvm.lifetime.end.p0(i64 4, ptr %15) #4
  call void @llvm.lifetime.end.p0(i64 8, ptr %14) #4
  call void @llvm.lifetime.end.p0(i64 4, ptr %13) #4
  call void @llvm.lifetime.end.p0(i64 4, ptr %12) #4
  call void @llvm.lifetime.end.p0(i64 4, ptr %11) #4
  call void @llvm.lifetime.end.p0(i64 4, ptr %10) #4
  %248 = load i32, ptr %5, align 4
  ret i32 %248
}