; Function Attrs: nounwind uwtable
define range(i32 0, 2) i32 @bn_mul_fixed_top(ptr noundef %0, ptr noundef readonly captures(address) %1, ptr noundef readonly captures(address) %2, ptr noundef %3) local_unnamed_addr #0 {
  %5 = getelementptr inbounds nuw i8, ptr %1, i64 8
  %6 = load i32, ptr %5, align 8, !tbaa !11
  %7 = getelementptr inbounds nuw i8, ptr %2, i64 8
  %8 = load i32, ptr %7, align 8, !tbaa !11
  %9 = icmp eq i32 %6, 0
  %10 = icmp eq i32 %8, 0
  %or.cond = select i1 %9, i1 true, i1 %10
  br i1 %or.cond, label %11, label %12

11:                                               ; preds = %4
  tail call void @BN_zero_ex(ptr noundef %0) #4
  br label %96

12:                                               ; preds = %4
  %13 = add nsw i32 %8, %6
  tail call void @BN_CTX_start(ptr noundef %3) #4
  %14 = icmp eq ptr %0, %1
  %15 = icmp eq ptr %0, %2
  %or.cond105 = or i1 %14, %15
  br i1 %or.cond105, label %16, label %19

16:                                               ; preds = %12
  %17 = tail call ptr @BN_CTX_get(ptr noundef %3) #4
  %18 = icmp eq ptr %17, null
  br i1 %18, label %95, label %19

19:                                               ; preds = %12, %16
  %.096 = phi ptr [ %17, %16 ], [ %0, %12 ]
  %20 = sub nsw i32 %6, %8
  %21 = icmp eq i32 %6, 8
  %22 = icmp eq i32 %8, 8
  %or.cond7 = and i1 %21, %22
  br i1 %or.cond7, label %23, label %31

23:                                               ; preds = %19
  %24 = tail call ptr @bn_wexpand(ptr noundef %.096, i32 noundef 16) #4
  %25 = icmp eq ptr %24, null
  br i1 %25, label %95, label %26

26:                                               ; preds = %23
  %27 = getelementptr inbounds nuw i8, ptr %.096, i64 8
  store i32 16, ptr %27, align 8, !tbaa !11
  %28 = load ptr, ptr %.096, align 8, !tbaa !16
  %29 = load ptr, ptr %1, align 8, !tbaa !16
  %30 = load ptr, ptr %2, align 8, !tbaa !16
  tail call void @bn_mul_comba8(ptr noundef %28, ptr noundef %29, ptr noundef %30) #4
  br label %84

31:                                               ; preds = %19
  %32 = icmp sgt i32 %6, 15
  %33 = icmp sgt i32 %8, 15
  %or.cond3 = select i1 %32, i1 %33, i1 false
  %34 = add i32 %20, 1
  %or.cond5 = icmp ult i32 %34, 3
  %or.cond106 = select i1 %or.cond3, i1 %or.cond5, i1 false
  br i1 %or.cond106, label %35, label %76

35:                                               ; preds = %31
  %36 = icmp slt i32 %20, 0
  %. = select i1 %36, i32 %8, i32 %6
  %37 = zext nneg i32 %. to i64
  %38 = tail call i32 @BN_num_bits_word(i64 noundef %37) #4
  %39 = add nsw i32 %38, -1
  %40 = shl nuw i32 1, %39
  %41 = tail call ptr @BN_CTX_get(ptr noundef %3) #4
  %42 = icmp eq ptr %41, null
  br i1 %42, label %95, label %43

43:                                               ; preds = %35
  %44 = icmp sgt i32 %6, %40
  %45 = icmp sgt i32 %8, %40
  %or.cond107 = select i1 %44, i1 true, i1 %45
  br i1 %or.cond107, label %46, label %60

46:                                               ; preds = %43
  %47 = shl i32 8, %39
  %48 = tail call ptr @bn_wexpand(ptr noundef nonnull %41, i32 noundef %47) #4
  %49 = icmp eq ptr %48, null
  br i1 %49, label %95, label %50

50:                                               ; preds = %46
  %51 = tail call ptr @bn_wexpand(ptr noundef %.096, i32 noundef %47) #4
  %52 = icmp eq ptr %51, null
  br i1 %52, label %95, label %53

53:                                               ; preds = %50
  %54 = load ptr, ptr %.096, align 8, !tbaa !16
  %55 = load ptr, ptr %1, align 8, !tbaa !16
  %56 = load ptr, ptr %2, align 8, !tbaa !16
  %57 = sub nsw i32 %6, %40
  %58 = sub nsw i32 %8, %40
  %59 = load ptr, ptr %41, align 8, !tbaa !16
  tail call void @bn_mul_part_recursive(ptr noundef %54, ptr noundef %55, ptr noundef %56, i32 noundef %40, i32 noundef %57, i32 noundef %58, ptr noundef %59)
  br label %74

60:                                               ; preds = %43
  %61 = shl i32 4, %39
  %62 = tail call ptr @bn_wexpand(ptr noundef nonnull %41, i32 noundef %61) #4
  %63 = icmp eq ptr %62, null
  br i1 %63, label %95, label %64

64:                                               ; preds = %60
  %65 = tail call ptr @bn_wexpand(ptr noundef %.096, i32 noundef %61) #4
  %66 = icmp eq ptr %65, null
  br i1 %66, label %95, label %67

67:                                               ; preds = %64
  %68 = load ptr, ptr %.096, align 8, !tbaa !16
  %69 = load ptr, ptr %1, align 8, !tbaa !16
  %70 = load ptr, ptr %2, align 8, !tbaa !16
  %71 = sub nsw i32 %6, %40
  %72 = sub nsw i32 %8, %40
  %73 = load ptr, ptr %41, align 8, !tbaa !16
  tail call void @bn_mul_recursive(ptr noundef %68, ptr noundef %69, ptr noundef %70, i32 noundef %40, i32 noundef %71, i32 noundef %72, ptr noundef %73)
  br label %74

74:                                               ; preds = %67, %53
  %75 = getelementptr inbounds nuw i8, ptr %.096, i64 8
  store i32 %13, ptr %75, align 8, !tbaa !11
  br label %84

76:                                               ; preds = %31
  %77 = tail call ptr @bn_wexpand(ptr noundef %.096, i32 noundef %13) #4
  %78 = icmp eq ptr %77, null
  br i1 %78, label %95, label %79

79:                                               ; preds = %76
  %80 = getelementptr inbounds nuw i8, ptr %.096, i64 8
  store i32 %13, ptr %80, align 8, !tbaa !11
  %81 = load ptr, ptr %.096, align 8, !tbaa !16
  %82 = load ptr, ptr %1, align 8, !tbaa !16
  %83 = load ptr, ptr %2, align 8, !tbaa !16
  tail call void @bn_mul_normal(ptr noundef %81, ptr noundef %82, i32 noundef %6, ptr noundef %83, i32 noundef %8)
  br label %84

84:                                               ; preds = %79, %74, %26
  %85 = getelementptr inbounds nuw i8, ptr %1, i64 16
  %86 = load i32, ptr %85, align 8, !tbaa !17
  %87 = getelementptr inbounds nuw i8, ptr %2, i64 16
  %88 = load i32, ptr %87, align 8, !tbaa !17
  %89 = xor i32 %88, %86
  %90 = getelementptr inbounds nuw i8, ptr %.096, i64 16
  store i32 %89, ptr %90, align 8, !tbaa !17
  %.not = icmp eq ptr %0, %.096
  br i1 %.not, label %94, label %91

91:                                               ; preds = %84
  %92 = tail call ptr @BN_copy(ptr noundef %0, ptr noundef nonnull %.096) #4
  %93 = icmp eq ptr %92, null
  br i1 %93, label %95, label %94

94:                                               ; preds = %91, %84
  br label %95

95:                                               ; preds = %91, %76, %64, %60, %50, %46, %35, %23, %16, %94
  %.095 = phi i32 [ 0, %16 ], [ 0, %23 ], [ 0, %91 ], [ 1, %94 ], [ 0, %35 ], [ 0, %46 ], [ 0, %50 ], [ 0, %60 ], [ 0, %64 ], [ 0, %76 ]
  tail call void @BN_CTX_end(ptr noundef %3) #4
  br label %96

96:                                               ; preds = %95, %11
  %.0 = phi i32 [ 1, %11 ], [ %.095, %95 ]
  ret i32 %.0
}